; Function Attrs: mustprogress nofree noinline norecurse nosync nounwind willreturn memory(argmem: read) uwtable
define internal fastcc noundef i64 @_ZL22XXPH3_len_129to240_64bPKhmS0_mm(ptr noundef readonly captures(none) %0, i64 noundef range(i64 129, 241) %1, i64 noundef %2) unnamed_addr #11 {
  %4 = mul i64 %1, -7046029288634856825
  %5 = trunc nuw nsw i64 %1 to i32
  br label %6

6:                                                ; preds = %3, %6
  %indvars.iv = phi i64 [ 0, %3 ], [ %indvars.iv.next, %6 ]
  %.0251 = phi i64 [ %4, %3 ], [ %22, %6 ]
  %7 = shl nuw nsw i64 %indvars.iv, 4
  %8 = getelementptr inbounds nuw i8, ptr %0, i64 %7
  %9 = getelementptr inbounds nuw i8, ptr @_ZL7kSecret, i64 %7
  %.val37 = load i64, ptr %8, align 1
  %10 = getelementptr inbounds nuw i8, ptr %8, i64 8
  %.val36 = load i64, ptr %10, align 1
  %.val35 = load i64, ptr %9, align 16
  %11 = add i64 %.val35, %2
  %12 = xor i64 %11, %.val37
  %13 = getelementptr inbounds nuw i8, ptr %9, i64 8
  %.val34 = load i64, ptr %13, align 8
  %14 = sub i64 %.val34, %2
  %15 = xor i64 %14, %.val36
  %16 = zext i64 %12 to i128
  %17 = zext i64 %15 to i128
  %18 = mul nuw i128 %17, %16
  %19 = lshr i128 %18, 64
  %20 = xor i128 %19, %18
  %21 = trunc i128 %20 to i64
  %22 = add i64 %.0251, %21
  %indvars.iv.next = add nuw nsw i64 %indvars.iv, 1
  %exitcond.not = icmp eq i64 %indvars.iv.next, 8
  br i1 %exitcond.not, label %23, label %6, !llvm.loop !28

23:                                               ; preds = %6
  %24 = lshr i32 %5, 4
  %25 = lshr i64 %22, 37
  %26 = xor i64 %25, %22
  %27 = mul i64 %26, 1609587929392839161
  %28 = lshr i64 %27, 32
  %29 = xor i64 %28, %27
  %.not = icmp eq i32 %24, 8
  br i1 %.not, label %._crit_edge, label %.lr.ph.preheader

.lr.ph.preheader:                                 ; preds = %23
  %wide.trip.count = zext nneg i32 %24 to i64
  br label %.lr.ph

.lr.ph:                                           ; preds = %.lr.ph.preheader, %.lr.ph
  %indvars.iv7 = phi i64 [ 8, %.lr.ph.preheader ], [ %indvars.iv.next8, %.lr.ph ]
  %.1263 = phi i64 [ %29, %.lr.ph.preheader ], [ %46, %.lr.ph ]
  %30 = shl nsw i64 %indvars.iv7, 4
  %31 = getelementptr inbounds nuw i8, ptr %0, i64 %30
  %32 = getelementptr i8, ptr @_ZL7kSecret, i64 %30
  %33 = getelementptr i8, ptr %32, i64 -125
  %.val33 = load i64, ptr %31, align 1
  %34 = getelementptr inbounds nuw i8, ptr %31, i64 8
  %.val32 = load i64, ptr %34, align 1
  %.val31 = load i64, ptr %33, align 1
  %35 = add i64 %.val31, %2
  %36 = xor i64 %35, %.val33
  %37 = getelementptr i8, ptr %32, i64 -117
  %.val30 = load i64, ptr %37, align 1
  %38 = sub i64 %.val30, %2
  %39 = xor i64 %38, %.val32
  %40 = zext i64 %36 to i128
  %41 = zext i64 %39 to i128
  %42 = mul nuw i128 %41, %40
  %43 = lshr i128 %42, 64
  %44 = xor i128 %43, %42
  %45 = trunc i128 %44 to i64
  %46 = add i64 %.1263, %45
  %indvars.iv.next8 = add nuw nsw i64 %indvars.iv7, 1
  %exitcond10.not = icmp eq i64 %indvars.iv.next8, %wide.trip.count
  br i1 %exitcond10.not, label %._crit_edge, label %.lr.ph, !llvm.loop !29

._crit_edge:                                      ; preds = %.lr.ph, %23
  %.126.lcssa = phi i64 [ %29, %23 ], [ %46, %.lr.ph ]
  %47 = getelementptr inbounds nuw i8, ptr %0, i64 %1
  %48 = getelementptr inbounds i8, ptr %47, i64 -16
  %.val29 = load i64, ptr %48, align 1
  %49 = getelementptr inbounds i8, ptr %47, i64 -8
  %.val28 = load i64, ptr %49, align 1
  %50 = add i64 %2, 8320639771003045937
  %51 = xor i64 %.val29, %50
  %52 = sub i64 -1453760514566526364, %2
  %53 = xor i64 %.val28, %52
  %54 = zext i64 %51 to i128
  %55 = zext i64 %53 to i128
  %56 = mul nuw i128 %55, %54
  %57 = lshr i128 %56, 64
  %58 = xor i128 %57, %56
  %59 = trunc i128 %58 to i64
  %60 = add i64 %.126.lcssa, %59
  %61 = lshr i64 %60, 37
  %62 = xor i64 %61, %60
  %63 = mul i64 %62, 1609587929392839161
  %64 = lshr i64 %63, 32
  %65 = xor i64 %64, %63
  ret i64 %65
}